; Function Attrs: nounwind uwtable
define internal fastcc range(i32 0, 2) i32 @getfield(ptr noundef nonnull captures(none) %0, ptr noundef nonnull captures(none) %1) unnamed_addr #0 {
  %3 = getelementptr inbounds nuw i8, ptr %0, i64 8212
  %4 = load i32, ptr %3, align 4
  %5 = icmp ult i32 %4, 4
  br i1 %5, label %6, label %._crit_edge.i

._crit_edge.i:                                    ; preds = %2
  %.phi.trans.insert.i = getelementptr inbounds nuw i8, ptr %0, i64 8208
  %.pre26.i = load i32, ptr %.phi.trans.insert.i, align 8
  br label %43

6:                                                ; preds = %2
  %7 = getelementptr inbounds nuw i8, ptr %0, i64 16
  %8 = getelementptr inbounds nuw i8, ptr %0, i64 8208
  %9 = load i32, ptr %8, align 8
  %10 = zext i32 %9 to i64
  %11 = getelementptr inbounds nuw i8, ptr %7, i64 %10
  %12 = zext nneg i32 %4 to i64
  %13 = sub nsw i64 0, %12
  %14 = getelementptr inbounds i8, ptr %11, i64 %13
  tail call void @llvm.memcpy.p0.p0.i64(ptr nonnull align 8 %7, ptr nonnull align 1 %14, i64 %12, i1 false)
  %15 = load ptr, ptr %0, align 8
  %16 = load i32, ptr %3, align 4
  %17 = zext i32 %16 to i64
  %18 = getelementptr inbounds nuw [8192 x i8], ptr %7, i64 0, i64 %17
  %19 = getelementptr inbounds nuw i8, ptr %0, i64 8
  %20 = load i64, ptr %19, align 8
  %21 = sub i32 8192, %16
  %22 = zext i32 %21 to i64
  %23 = getelementptr inbounds nuw i8, ptr %15, i64 88
  %24 = load i64, ptr %23, align 8
  %25 = icmp ne i64 %20, %24
  %26 = icmp ne i32 %16, 8192
  %or.cond.i.i = and i1 %26, %25
  br i1 %or.cond.i.i, label %27, label %fmap_readn.exit.i

27:                                               ; preds = %6
  %28 = icmp ugt i64 %20, %24
  br i1 %28, label %.thread, label %29

29:                                               ; preds = %27
  %30 = sub nuw i64 %24, %20
  %spec.select.i.i = tail call i64 @llvm.umin.i64(i64 range(i64 0, 4294967296) %22, i64 %30)
  %31 = getelementptr inbounds nuw i8, ptr %15, i64 104
  %32 = load ptr, ptr %31, align 8
  %33 = tail call ptr %32(ptr noundef nonnull %15, i64 noundef %20, i64 noundef %spec.select.i.i, i32 noundef 0) #8
  %.not.i.i = icmp eq ptr %33, null
  br i1 %.not.i.i, label %.thread, label %34

34:                                               ; preds = %29
  tail call void @llvm.memcpy.p0.p0.i64(ptr nonnull align 1 %18, ptr nonnull align 1 %33, i64 %spec.select.i.i, i1 false)
  %35 = icmp samesign ult i64 %spec.select.i.i, 2147483648
  br i1 %35, label %.fmap_readn.exit_crit_edge.i, label %.thread

.fmap_readn.exit_crit_edge.i:                     ; preds = %34
  %.pre.i = load i32, ptr %3, align 4
  br label %fmap_readn.exit.i

fmap_readn.exit.i:                                ; preds = %.fmap_readn.exit_crit_edge.i, %6
  %36 = phi i32 [ %16, %6 ], [ %.pre.i, %.fmap_readn.exit_crit_edge.i ]
  %.0.i.i = phi i64 [ 0, %6 ], [ %spec.select.i.i, %.fmap_readn.exit_crit_edge.i ]
  %37 = trunc nuw i64 %.0.i.i to i32
  %38 = add i32 %36, %37
  store i32 %38, ptr %8, align 8
  store i32 %38, ptr %3, align 4
  %39 = icmp ult i32 %38, 4
  br i1 %39, label %.thread, label %40

40:                                               ; preds = %fmap_readn.exit.i
  %41 = load i64, ptr %19, align 8
  %42 = add i64 %41, %.0.i.i
  store i64 %42, ptr %19, align 8
  br label %43

43:                                               ; preds = %._crit_edge.i, %40
  %44 = phi i32 [ %4, %._crit_edge.i ], [ %38, %40 ]
  %45 = phi i32 [ %.pre26.i, %._crit_edge.i ], [ %38, %40 ]
  %46 = getelementptr inbounds nuw i8, ptr %0, i64 16
  %47 = sub i32 %45, %44
  %48 = zext i32 %47 to i64
  %49 = getelementptr inbounds nuw [8192 x i8], ptr %46, i64 0, i64 %48
  %50 = load i32, ptr %49, align 1
  store i32 %50, ptr %1, align 4
  %51 = load i32, ptr %3, align 4
  %52 = add i32 %51, -4
  store i32 %52, ptr %3, align 4
  %53 = tail call fastcc i32 @getsize(ptr noundef %0)
  %.not16 = icmp eq i32 %53, 0
  br i1 %.not16, label %54, label %.thread

54:                                               ; preds = %43
  %55 = load i32, ptr %1, align 4
  %56 = icmp ult i32 %55, 42
  %57 = getelementptr inbounds nuw i8, ptr %0, i64 8300
  %58 = load i32, ptr %57, align 4
  br i1 %56, label %59, label %67

59:                                               ; preds = %54
  %60 = zext nneg i32 %55 to i64
  %61 = getelementptr inbounds nuw [42 x ptr], ptr @sisfields, i64 0, i64 %60
  %62 = load ptr, ptr %61, align 8
  %63 = getelementptr inbounds nuw i8, ptr %0, i64 8272
  %64 = zext i32 %58 to i64
  %65 = getelementptr inbounds nuw [7 x i32], ptr %63, i64 0, i64 %64
  %66 = load i32, ptr %65, align 4
  tail call void (ptr, ...) @cli_dbgmsg(ptr noundef nonnull @.str.208, i32 noundef %58, ptr noundef %62, i32 noundef %55, i32 noundef %66) #8
  br label %.thread

67:                                               ; preds = %54
  %68 = getelementptr inbounds nuw i8, ptr %0, i64 8272
  %69 = zext i32 %58 to i64
  %70 = getelementptr inbounds nuw [7 x i32], ptr %68, i64 0, i64 %69
  %71 = load i32, ptr %70, align 4
  tail call void (ptr, ...) @cli_dbgmsg(ptr noundef nonnull @.str.209, i32 noundef %58, i32 noundef %55, i32 noundef %71) #8
  br label %.thread

.thread:                                          ; preds = %fmap_readn.exit.i, %34, %27, %29, %59, %67, %43
  %.021 = phi i32 [ 0, %59 ], [ 0, %67 ], [ 1, %43 ], [ 1, %29 ], [ 1, %27 ], [ 1, %34 ], [ 1, %fmap_readn.exit.i ]
  ret i32 %.021
}